; Function Attrs: null_pointer_is_valid sspstrong uwtable
define internal i32 @dissect_h245_Ack_mediaControlChannel(ptr noundef %0, i32 noundef %1, ptr noundef %2, ptr noundef %3, i32 noundef %4) #1 {
  %6 = load ptr, ptr @upcoming_channel, align 8
  %.not = icmp eq ptr %6, null
  br i1 %.not, label %10, label %7

7:                                                ; preds = %5
  %8 = getelementptr inbounds nuw i8, ptr %6, i64 88
  %9 = getelementptr inbounds nuw i8, ptr %6, i64 32
  store ptr %8, ptr %9, align 8
  br label %10

10:                                               ; preds = %7, %5
  %11 = load i32, ptr @ett_h245_TransportAddress, align 4
  %12 = tail call i32 @dissect_per_choice(ptr noundef %0, i32 noundef %1, ptr noundef %2, ptr noundef %3, i32 noundef %4, i32 noundef %11, ptr noundef nonnull @TransportAddress_choice, ptr noundef null)
  %13 = load ptr, ptr @upcoming_channel, align 8
  %.not6 = icmp eq ptr %13, null
  br i1 %.not6, label %16, label %14

14:                                               ; preds = %10
  %15 = getelementptr inbounds nuw i8, ptr %13, i64 32
  store ptr null, ptr %15, align 8
  br label %16

16:                                               ; preds = %14, %10
  ret i32 %12
}